; Function Attrs: mustprogress uwtable
define hidden noundef zeroext i1 @_ZN6google8protobuf8compiler3cpp16IsBootstrapProtoERKNS2_7OptionsEPKNS0_14FileDescriptorE(ptr nocapture noundef nonnull readonly align 8 dereferenceable(206) %options, ptr nocapture noundef readonly %file) local_unnamed_addr #4 personality ptr @__gxx_personality_v0 {
entry:
  %my_name = alloca %"class.std::__cxx11::basic_string", align 8
  %name_.i = getelementptr inbounds i8, ptr %file, i64 8
  %0 = load ptr, ptr %name_.i, align 8
  %call1 = tail call { i64, ptr } @_ZNKSt7__cxx1112basic_stringIcSt11char_traitsIcESaIcEEcvSt17basic_string_viewIcS2_EEv(ptr noundef nonnull align 8 dereferenceable(32) %0) #26
  %1 = extractvalue { i64, ptr } %call1, 0
  %2 = extractvalue { i64, ptr } %call1, 1
  call void @_ZN6google8protobuf8compiler10StripProtoB5cxx11ESt17basic_string_viewIcSt11char_traitsIcEE(ptr nonnull sret(%"class.std::__cxx11::basic_string") align 8 %my_name, i64 %1, ptr %2)
  %call3 = call { i64, ptr } @_ZNKSt7__cxx1112basic_stringIcSt11char_traitsIcESaIcEEcvSt17basic_string_viewIcS2_EEv(ptr noundef nonnull align 8 dereferenceable(32) %my_name) #26
  %3 = extractvalue { i64, ptr } %call3, 0
  %4 = extractvalue { i64, ptr } %call3, 1
  %call4 = invoke noundef zeroext i1 @_ZN6google8protobuf8compiler3cpp20GetBootstrapBasenameERKNS2_7OptionsESt17basic_string_viewIcSt11char_traitsIcEEPNSt7__cxx1112basic_stringIcS8_SaIcEEE(ptr noundef nonnull align 8 dereferenceable(206) %options, i64 %3, ptr %4, ptr noundef nonnull %my_name)
          to label %invoke.cont unwind label %lpad

invoke.cont:                                      ; preds = %entry
  call void @_ZNSt7__cxx1112basic_stringIcSt11char_traitsIcESaIcEED1Ev(ptr noundef nonnull align 8 dereferenceable(32) %my_name) #26
  ret i1 %call4

lpad:                                             ; preds = %entry
  %5 = landingpad { ptr, i32 }
          cleanup
  call void @_ZNSt7__cxx1112basic_stringIcSt11char_traitsIcESaIcEED1Ev(ptr noundef nonnull align 8 dereferenceable(32) %my_name) #26
  resume { ptr, i32 } %5
}